target datalayout = "e-m:e-p270:32:32-p271:32:32-p272:64:64-i64:64-i128:128-f80:128-n8:16:32:64-S128"
target triple = "x86_64-pc-linux-gnu"

; Function Attrs: mustprogress nounwind uwtable
define noundef i32 @_ZN4Cube20FaceReflectFaceIndexEii(i32 noundef %0, i32 noundef %1) #1 align 2 {
  %3 = alloca i32, align 4
  %4 = alloca i32, align 4
  %5 = alloca i32, align 4
  store i32 %0, ptr %4, align 4
  store i32 %1, ptr %5, align 4
  %6 = load i32, ptr %4, align 4
  %7 = sdiv i32 %6, 2
  %8 = load i32, ptr %5, align 4
  %9 = sdiv i32 %8, 2
  %10 = icmp ne i32 %7, %9
  br i1 %10, label %11, label %13

11:                                               ; preds = %2
  %12 = load i32, ptr %4, align 4
  store i32 %12, ptr %3, align 4
  br label %23

13:                                               ; preds = %2
  %14 = load i32, ptr %4, align 4
  %15 = srem i32 %14, 2
  %16 = icmp ne i32 %15, 0
  br i1 %16, label %17, label %20

17:                                               ; preds = %13
  %18 = load i32, ptr %4, align 4
  %19 = sub nsw i32 %18, 1
  store i32 %19, ptr %3, align 4
  br label %23

20:                                               ; preds = %13
  %21 = load i32, ptr %4, align 4
  %22 = add nsw i32 %21, 1
  store i32 %22, ptr %3, align 4
  br label %23

23:                                               ; preds = %20, %17, %11
  %24 = load i32, ptr %3, align 4
  ret i32 %24
}