; Function Attrs: mustprogress nofree norecurse nosync nounwind willreturn memory(none) uwtable
define noundef i32 @_ZN4Cube20FaceReflectFaceIndexEii(i32 noundef %0, i32 noundef %1) local_unnamed_addr #0 align 2 {
  %3 = sdiv i32 %0, 2
  %4 = sdiv i32 %1, 2
  %.not = icmp eq i32 %3, %4
  br i1 %.not, label %5, label %11

5:                                                ; preds = %2
  %6 = and i32 %0, 1
  %.not7 = icmp eq i32 %6, 0
  br i1 %.not7, label %9, label %7

7:                                                ; preds = %5
  %8 = add nsw i32 %0, -1
  br label %11

9:                                                ; preds = %5
  %10 = or disjoint i32 %0, 1
  br label %11

11:                                               ; preds = %2, %9, %7
  %.0 = phi i32 [ %8, %7 ], [ %10, %9 ], [ %0, %2 ]
  ret i32 %.0
}